; Function Attrs: nounwind uwtable
define internal void @text_input_done(ptr noundef captures(none) %0, ptr readnone captures(none) %1, i32 %2) #0 {
  %4 = getelementptr inbounds nuw i8, ptr %0, i64 513
  %5 = load i8, ptr %4, align 1, !range !6, !noundef !7
  %6 = trunc nuw i8 %5 to i1
  br i1 %6, label %8, label %7

7:                                                ; preds = %3
  tail call void @SDL_SendEditingText(ptr noundef nonnull @.str.26, i32 noundef 0, i32 noundef 0) #12
  br label %8

8:                                                ; preds = %7, %3
  store i8 0, ptr %4, align 1
  ret void
}